; Function Attrs: mustprogress nofree norecurse nosync nounwind willreturn memory(argmem: read) uwtable
define dso_local noundef range(i32 0, 4) i32 @_ZN4llvm26GenericConvergenceVerifierINS_17GenericSSAContextINS_15MachineFunctionEEEE9getConvOpERKNS_12MachineInstrE(ptr nocapture noundef nonnull readonly align 8 dereferenceable(70) %0) local_unnamed_addr #0 align 2 {
  %2 = getelementptr inbounds nuw i8, ptr %0, i64 68
  %3 = load i16, ptr %2, align 4
  %switch.tableidx = add i16 %3, -45
  %4 = icmp ult i16 %switch.tableidx, 3
  br i1 %4, label %switch.lookup, label %6

switch.lookup:                                    ; preds = %1
  %5 = zext nneg i16 %switch.tableidx to i64
  %switch.gep = getelementptr inbounds [3 x i32], ptr @switch.table._ZN4llvm26GenericConvergenceVerifierINS_17GenericSSAContextINS_15MachineFunctionEEEE9getConvOpERKNS_12MachineInstrE, i64 0, i64 %5
  %switch.load = load i32, ptr %switch.gep, align 4
  br label %6

6:                                                ; preds = %switch.lookup, %1
  %.0 = phi i32 [ 3, %1 ], [ %switch.load, %switch.lookup ]
  ret i32 %.0
}